; Function Attrs: nofree norecurse nosync nounwind memory(readwrite, inaccessiblemem: none) uwtable
define internal void @jpeg_difference3(ptr noundef readonly captures(none) %0, i32 noundef %1, ptr noundef readonly captures(none) %2, ptr noundef readonly captures(none) %3, ptr noundef writeonly captures(none) initializes((0, 4)) %4, i32 noundef %5) #4 {
  %7 = getelementptr inbounds nuw i8, ptr %0, i64 488
  %8 = load ptr, ptr %7, align 8, !tbaa !34
  %9 = load i8, ptr %3, align 1, !tbaa !29
  %10 = zext i8 %9 to i32
  %11 = load i8, ptr %2, align 1, !tbaa !29
  %12 = zext i8 %11 to i32
  %13 = sub nsw i32 %12, %10
  store i32 %13, ptr %4, align 4, !tbaa !43
  %14 = add i32 %5, -1
  %.not27 = icmp eq i32 %14, 0
  br i1 %.not27, label %._crit_edge, label %.lr.ph

.lr.ph:                                           ; preds = %6, %.lr.ph
  %15 = phi i32 [ %21, %.lr.ph ], [ %14, %6 ]
  %.pn2531 = phi ptr [ %.0, %.lr.ph ], [ %2, %6 ]
  %.01830 = phi i32 [ %17, %.lr.ph ], [ %10, %6 ]
  %.pn29 = phi ptr [ %.019, %.lr.ph ], [ %3, %6 ]
  %.pn2628 = phi ptr [ %.021, %.lr.ph ], [ %4, %6 ]
  %.021 = getelementptr inbounds nuw i8, ptr %.pn2628, i64 4
  %.0 = getelementptr inbounds nuw i8, ptr %.pn2531, i64 1
  %.019 = getelementptr inbounds nuw i8, ptr %.pn29, i64 1
  %16 = load i8, ptr %.019, align 1, !tbaa !29
  %17 = zext i8 %16 to i32
  %18 = load i8, ptr %.0, align 1, !tbaa !29
  %19 = zext i8 %18 to i32
  %20 = sub nsw i32 %19, %.01830
  store i32 %20, ptr %.021, align 4, !tbaa !43
  %21 = add i32 %15, -1
  %.not = icmp eq i32 %21, 0
  br i1 %.not, label %._crit_edge, label %.lr.ph, !llvm.loop !52

._crit_edge:                                      ; preds = %.lr.ph, %6
  %22 = getelementptr inbounds nuw i8, ptr %0, i64 280
  %23 = load i32, ptr %22, align 8, !tbaa !40
  %.not24 = icmp eq i32 %23, 0
  br i1 %.not24, label %38, label %24

24:                                               ; preds = %._crit_edge
  %25 = getelementptr inbounds nuw i8, ptr %8, i64 104
  %26 = sext i32 %1 to i64
  %27 = getelementptr inbounds [10 x i32], ptr %25, i64 0, i64 %26
  %28 = load i32, ptr %27, align 4, !tbaa !43
  %29 = add i32 %28, -1
  store i32 %29, ptr %27, align 4, !tbaa !43
  %30 = icmp eq i32 %29, 0
  br i1 %30, label %31, label %38

31:                                               ; preds = %24
  %32 = load i32, ptr %22, align 8, !tbaa !40
  %33 = getelementptr inbounds nuw i8, ptr %0, i64 360
  %34 = load i32, ptr %33, align 8, !tbaa !41
  %35 = udiv i32 %32, %34
  store i32 %35, ptr %27, align 4, !tbaa !43
  %36 = getelementptr inbounds nuw i8, ptr %8, i64 24
  %37 = getelementptr inbounds [10 x ptr], ptr %36, i64 0, i64 %26
  store ptr @jpeg_difference_first_row, ptr %37, align 8, !tbaa !44
  br label %38

38:                                               ; preds = %24, %31, %._crit_edge
  ret void
}